; ModuleID = 'source-C-CXX/30/1502.c'
source_filename = "source-C-CXX/30/1502.c"
target datalayout = "e-m:e-p270:32:32-p271:32:32-p272:64:64-i64:64-f80:128-n8:16:32:64-S128"
target triple = "x86_64-pc-linux-gnu"

%struct.student = type { [30 x i8], [30 x i8], i8, float, float, [30 x i8], %struct.student*, %struct.student* }

@.str = private unnamed_addr constant [3 x i8] c"%s\00", align 1
@.str.1 = private unnamed_addr constant [4 x i8] c"end\00", align 1
@.str.2 = private unnamed_addr constant [15 x i8] c"%s %c %f %f %s\00", align 1
@.str.3 = private unnamed_addr constant [19 x i8] c"%s %s %c %g %g %s\0A\00", align 1

; Function Attrs: nofree nounwind sspstrong uwtable
define dso_local void @main() local_unnamed_addr #0 {
  %1 = tail call noalias align 16 dereferenceable_or_null(120) i8* @malloc(i64 120) #4
  %2 = bitcast i8* %1 to %struct.student*
  %3 = getelementptr inbounds %struct.student, %struct.student* %2, i64 0, i32 7
  store %struct.student* null, %struct.student** %3, align 16, !tbaa !5
  %4 = getelementptr inbounds %struct.student, %struct.student* %2, i64 0, i32 0, i64 0
  %5 = tail call i32 (i8*, ...) @__isoc99_scanf(i8* getelementptr inbounds ([3 x i8], [3 x i8]* @.str, i64 0, i64 0), i8* %4)
  %6 = tail call i32 @strcmp(i8* noundef nonnull dereferenceable(1) %4, i8* noundef nonnull dereferenceable(4) getelementptr inbounds ([4 x i8], [4 x i8]* @.str.1, i64 0, i64 0)) #5
  %7 = icmp eq i32 %6, 0
  br i1 %7, label %27, label %8

8:                                                ; preds = %0, %8
  %9 = phi %struct.student* [ %17, %8 ], [ %2, %0 ]
  %10 = getelementptr inbounds %struct.student, %struct.student* %9, i64 0, i32 1, i64 0
  %11 = getelementptr inbounds %struct.student, %struct.student* %9, i64 0, i32 2
  %12 = getelementptr inbounds %struct.student, %struct.student* %9, i64 0, i32 3
  %13 = getelementptr inbounds %struct.student, %struct.student* %9, i64 0, i32 4
  %14 = getelementptr inbounds %struct.student, %struct.student* %9, i64 0, i32 5, i64 0
  %15 = tail call i32 (i8*, ...) @__isoc99_scanf(i8* getelementptr inbounds ([15 x i8], [15 x i8]* @.str.2, i64 0, i64 0), i8* nonnull %10, i8* nonnull %11, float* nonnull %12, float* nonnull %13, i8* nonnull %14)
  %16 = tail call noalias align 16 dereferenceable_or_null(120) i8* @malloc(i64 120) #4
  %17 = bitcast i8* %16 to %struct.student*
  %18 = getelementptr inbounds %struct.student, %struct.student* %9, i64 0, i32 6
  %19 = bitcast %struct.student** %18 to i8**
  store i8* %16, i8** %19, align 8, !tbaa !11
  %20 = getelementptr inbounds %struct.student, %struct.student* %17, i64 0, i32 7
  store %struct.student* %9, %struct.student** %20, align 16, !tbaa !5
  %21 = getelementptr inbounds %struct.student, %struct.student* %17, i64 0, i32 0, i64 0
  %22 = tail call i32 (i8*, ...) @__isoc99_scanf(i8* getelementptr inbounds ([3 x i8], [3 x i8]* @.str, i64 0, i64 0), i8* %21)
  %23 = tail call i32 @strcmp(i8* noundef nonnull dereferenceable(1) %21, i8* noundef nonnull dereferenceable(4) getelementptr inbounds ([4 x i8], [4 x i8]* @.str.1, i64 0, i64 0)) #5
  %24 = icmp eq i32 %23, 0
  br i1 %24, label %25, label %8

25:                                               ; preds = %8
  %26 = bitcast i8* %16 to %struct.student*
  br label %27

27:                                               ; preds = %25, %0
  %28 = phi %struct.student* [ %2, %0 ], [ %26, %25 ]
  %29 = getelementptr inbounds %struct.student, %struct.student* %28, i64 0, i32 7
  %30 = load %struct.student*, %struct.student** %29, align 8, !tbaa !5
  %31 = getelementptr inbounds %struct.student, %struct.student* %30, i64 0, i32 6
  store %struct.student* null, %struct.student** %31, align 8, !tbaa !11
  br label %32

32:                                               ; preds = %27, %32
  %33 = phi %struct.student* [ %48, %32 ], [ %30, %27 ]
  %34 = getelementptr inbounds %struct.student, %struct.student* %33, i64 0, i32 0, i64 0
  %35 = getelementptr inbounds %struct.student, %struct.student* %33, i64 0, i32 1, i64 0
  %36 = getelementptr inbounds %struct.student, %struct.student* %33, i64 0, i32 2
  %37 = load i8, i8* %36, align 4, !tbaa !12
  %38 = sext i8 %37 to i32
  %39 = getelementptr inbounds %struct.student, %struct.student* %33, i64 0, i32 3
  %40 = load float, float* %39, align 8, !tbaa !13
  %41 = fpext float %40 to double
  %42 = getelementptr inbounds %struct.student, %struct.student* %33, i64 0, i32 4
  %43 = load float, float* %42, align 4, !tbaa !14
  %44 = fpext float %43 to double
  %45 = getelementptr inbounds %struct.student, %struct.student* %33, i64 0, i32 5, i64 0
  %46 = tail call i32 (i8*, ...) @printf(i8* nonnull dereferenceable(1) getelementptr inbounds ([19 x i8], [19 x i8]* @.str.3, i64 0, i64 0), i8* nonnull %34, i8* nonnull %35, i32 %38, double %41, double %44, i8* nonnull %45)
  %47 = getelementptr inbounds %struct.student, %struct.student* %33, i64 0, i32 7
  %48 = load %struct.student*, %struct.student** %47, align 8, !tbaa !5
  %49 = icmp eq %struct.student* %48, null
  br i1 %49, label %50, label %32, !llvm.loop !15

50:                                               ; preds = %32
  ret void
}

; Function Attrs: inaccessiblememonly mustprogress nofree nounwind willreturn
declare noalias noundef align 16 i8* @malloc(i64 noundef) local_unnamed_addr #1

; Function Attrs: nofree nounwind
declare noundef i32 @__isoc99_scanf(i8* nocapture noundef readonly, ...) local_unnamed_addr #2

; Function Attrs: argmemonly mustprogress nofree nounwind readonly willreturn
declare i32 @strcmp(i8* nocapture, i8* nocapture) local_unnamed_addr #3

; Function Attrs: nofree nounwind
declare noundef i32 @printf(i8* nocapture noundef readonly, ...) local_unnamed_addr #2


!llvm.module.flags = !{!0, !1, !2, !3}
!llvm.ident = !{!4}

!0 = !{i32 1, !"wchar_size", i32 4}
!1 = !{i32 7, !"PIC Level", i32 2}
!2 = !{i32 7, !"PIE Level", i32 2}
!3 = !{i32 7, !"uwtable", i32 1}
!4 = !{!"clang version 13.0.0"}
!5 = !{!6, !10, i64 112}
!6 = !{!"student", !7, i64 0, !7, i64 30, !7, i64 60, !9, i64 64, !9, i64 68, !7, i64 72, !10, i64 104, !10, i64 112}
!7 = !{!"omnipotent char", !8, i64 0}
!8 = !{!"Simple C/C++ TBAA"}
!9 = !{!"float", !7, i64 0}
!10 = !{!"any pointer", !7, i64 0}
!11 = !{!6, !10, i64 104}
!12 = !{!6, !7, i64 60}
!13 = !{!6, !9, i64 64}
!14 = !{!6, !9, i64 68}
!15 = distinct !{!15, !16}
!16 = !{!"llvm.loop.mustprogress"}
